; Function Attrs: nounwind uwtable
define internal void @pdo_sqlite_fetch_error_func(ptr nocapture noundef readonly %0, ptr nocapture readnone %1, ptr noundef %2) #0 {
  %4 = getelementptr inbounds i8, ptr %0, i64 8
  %5 = load ptr, ptr %4, align 8
  %6 = getelementptr inbounds i8, ptr %5, i64 20
  %7 = load i32, ptr %6, align 4
  %.not = icmp eq i32 %7, 0
  br i1 %.not, label %14, label %8

8:                                                ; preds = %3
  %9 = zext i32 %7 to i64
  %10 = tail call i32 @add_next_index_long(ptr noundef %2, i64 noundef %9) #11
  %11 = getelementptr inbounds i8, ptr %5, i64 24
  %12 = load ptr, ptr %11, align 8
  %13 = tail call i32 @add_next_index_string(ptr noundef %2, ptr noundef %12) #11
  br label %14

14:                                               ; preds = %8, %3
  ret void
}